target datalayout = "e-m:e-p270:32:32-p271:32:32-p272:64:64-i64:64-i128:128-f80:128-n8:16:32:64-S128"
target triple = "x86_64-unknown-linux-gnu"

%"class.std::__cxx11::basic_string" = type { %"struct.std::__cxx11::basic_string<char>::_Alloc_hider", i64, %union.anon }
%"struct.std::__cxx11::basic_string<char>::_Alloc_hider" = type { ptr }
%union.anon = type { i64, [8 x i8] }
%"class.Assimp::MD3Importer" = type { %"class.Assimp::BaseImporter", i32, i8, %"class.std::__cxx11::basic_string", i8, %"class.std::__cxx11::basic_string", i8, ptr, ptr, i32, %"class.std::__cxx11::basic_string", %"class.std::__cxx11::basic_string", %"class.std::__cxx11::basic_string", ptr, ptr }
%"class.Assimp::BaseImporter" = type { ptr, double, double, %"class.std::__cxx11::basic_string", %"class.std::__exception_ptr::exception_ptr", ptr }
%"class.std::__exception_ptr::exception_ptr" = type { ptr }

; Function Attrs: mustprogress nounwind uwtable
define hidden void @_ZN6Assimp11MD3ImporterC2Ev(ptr noundef nonnull align 8 dereferenceable(296) %this) unnamed_addr #0 align 2 {
entry:
  %this.addr = alloca ptr, align 8
  store ptr %this, ptr %this.addr, align 8
  %this1 = load ptr, ptr %this.addr, align 8
  call void @_ZN6Assimp12BaseImporterC2Ev(ptr noundef nonnull align 8 dereferenceable(72) %this1) #14
  store ptr getelementptr inbounds ({ [8 x ptr] }, ptr @_ZTVN6Assimp11MD3ImporterE, i32 0, i32 0, i32 2), ptr %this1, align 8
  %configFrameID = getelementptr inbounds %"class.Assimp::MD3Importer", ptr %this1, i32 0, i32 1
  store i32 0, ptr %configFrameID, align 8
  %configHandleMP = getelementptr inbounds %"class.Assimp::MD3Importer", ptr %this1, i32 0, i32 2
  store i8 1, ptr %configHandleMP, align 4
  %configSkinFile = getelementptr inbounds %"class.Assimp::MD3Importer", ptr %this1, i32 0, i32 3
  call void @_ZNSt7__cxx1112basic_stringIcSt11char_traitsIcESaIcEEC1Ev(ptr noundef nonnull align 8 dereferenceable(32) %configSkinFile) #14
  %configShaderFile = getelementptr inbounds %"class.Assimp::MD3Importer", ptr %this1, i32 0, i32 5
  call void @_ZNSt7__cxx1112basic_stringIcSt11char_traitsIcESaIcEEC1Ev(ptr noundef nonnull align 8 dereferenceable(32) %configShaderFile) #14
  %configSpeedFlag = getelementptr inbounds %"class.Assimp::MD3Importer", ptr %this1, i32 0, i32 6
  store i8 0, ptr %configSpeedFlag, align 8
  %pcHeader = getelementptr inbounds %"class.Assimp::MD3Importer", ptr %this1, i32 0, i32 7
  store ptr null, ptr %pcHeader, align 8
  %mBuffer = getelementptr inbounds %"class.Assimp::MD3Importer", ptr %this1, i32 0, i32 8
  store ptr null, ptr %mBuffer, align 8
  %fileSize = getelementptr inbounds %"class.Assimp::MD3Importer", ptr %this1, i32 0, i32 9
  store i32 0, ptr %fileSize, align 8
  %mFile = getelementptr inbounds %"class.Assimp::MD3Importer", ptr %this1, i32 0, i32 10
  call void @_ZNSt7__cxx1112basic_stringIcSt11char_traitsIcESaIcEEC1Ev(ptr noundef nonnull align 8 dereferenceable(32) %mFile) #14
  %path = getelementptr inbounds %"class.Assimp::MD3Importer", ptr %this1, i32 0, i32 11
  call void @_ZNSt7__cxx1112basic_stringIcSt11char_traitsIcESaIcEEC1Ev(ptr noundef nonnull align 8 dereferenceable(32) %path) #14
  %filename = getelementptr inbounds %"class.Assimp::MD3Importer", ptr %this1, i32 0, i32 12
  call void @_ZNSt7__cxx1112basic_stringIcSt11char_traitsIcESaIcEEC1Ev(ptr noundef nonnull align 8 dereferenceable(32) %filename) #14
  %mScene = getelementptr inbounds %"class.Assimp::MD3Importer", ptr %this1, i32 0, i32 13
  store ptr null, ptr %mScene, align 8
  %mIOHandler = getelementptr inbounds %"class.Assimp::MD3Importer", ptr %this1, i32 0, i32 14
  store ptr null, ptr %mIOHandler, align 8
  ret void
}