; Function Attrs: mustprogress nounwind uwtable
define hidden void @_ZN6Assimp11MD3ImporterC2Ev(ptr noundef nonnull align 8 dereferenceable(296) %this) unnamed_addr #3 align 2 {
entry:
  tail call void @_ZN6Assimp12BaseImporterC2Ev(ptr noundef nonnull align 8 dereferenceable(72) %this) #17
  store ptr getelementptr inbounds ({ [8 x ptr] }, ptr @_ZTVN6Assimp11MD3ImporterE, i64 0, i32 0, i64 2), ptr %this, align 8
  %configFrameID = getelementptr inbounds i8, ptr %this, i64 72
  store i32 0, ptr %configFrameID, align 8
  %configHandleMP = getelementptr inbounds i8, ptr %this, i64 76
  store i8 1, ptr %configHandleMP, align 4
  %configSkinFile = getelementptr inbounds i8, ptr %this, i64 80
  tail call void @_ZNSt7__cxx1112basic_stringIcSt11char_traitsIcESaIcEEC1Ev(ptr noundef nonnull align 8 dereferenceable(32) %configSkinFile) #17
  %configShaderFile = getelementptr inbounds i8, ptr %this, i64 120
  tail call void @_ZNSt7__cxx1112basic_stringIcSt11char_traitsIcESaIcEEC1Ev(ptr noundef nonnull align 8 dereferenceable(32) %configShaderFile) #17
  %configSpeedFlag = getelementptr inbounds i8, ptr %this, i64 152
  store i8 0, ptr %configSpeedFlag, align 8
  %pcHeader = getelementptr inbounds i8, ptr %this, i64 160
  %mFile = getelementptr inbounds i8, ptr %this, i64 184
  tail call void @llvm.memset.p0.i64(ptr noundef nonnull align 8 dereferenceable(20) %pcHeader, i8 0, i64 20, i1 false)
  tail call void @_ZNSt7__cxx1112basic_stringIcSt11char_traitsIcESaIcEEC1Ev(ptr noundef nonnull align 8 dereferenceable(32) %mFile) #17
  %path = getelementptr inbounds i8, ptr %this, i64 216
  tail call void @_ZNSt7__cxx1112basic_stringIcSt11char_traitsIcESaIcEEC1Ev(ptr noundef nonnull align 8 dereferenceable(32) %path) #17
  %filename = getelementptr inbounds i8, ptr %this, i64 248
  tail call void @_ZNSt7__cxx1112basic_stringIcSt11char_traitsIcESaIcEEC1Ev(ptr noundef nonnull align 8 dereferenceable(32) %filename) #17
  %mScene = getelementptr inbounds i8, ptr %this, i64 280
  tail call void @llvm.memset.p0.i64(ptr noundef nonnull align 8 dereferenceable(16) %mScene, i8 0, i64 16, i1 false)
  ret void
}